target datalayout = "e-m:e-p270:32:32-p271:32:32-p272:64:64-i64:64-i128:128-f80:128-n8:16:32:64-S128"
target triple = "x86_64-pc-linux-gnu"

%struct._zend_output_globals = type { %struct._zend_stack, ptr, ptr, ptr, i32, i32 }
%struct._zend_stack = type { i32, i32, i32, ptr }
%struct._php_output_buffer = type { ptr, i64, i64, i32 }
%struct._php_output_handler = type { ptr, i32, i32, i64, %struct._php_output_buffer, ptr, ptr, %union.anon.2 }
%union.anon.2 = type { ptr }

@output_globals = dso_local global %struct._zend_output_globals zeroinitializer, align 8

; Function Attrs: nounwind uwtable
define dso_local i32 @php_output_handler_hook(i32 noundef %0, ptr noundef %1) #0 {
  %3 = alloca i32, align 4
  %4 = alloca i32, align 4
  %5 = alloca ptr, align 8
  store i32 %0, ptr %4, align 4, !tbaa !57
  store ptr %1, ptr %5, align 8, !tbaa !4
  %6 = load ptr, ptr getelementptr inbounds nuw (%struct._zend_output_globals, ptr @output_globals, i32 0, i32 2), align 8, !tbaa !30
  %7 = icmp ne ptr %6, null
  br i1 %7, label %8, label %36

8:                                                ; preds = %2
  %9 = load i32, ptr %4, align 4, !tbaa !57
  switch i32 %9, label %34 [
    i32 0, label %10
    i32 1, label %14
    i32 2, label %19
    i32 3, label %24
    i32 4, label %29
  ]

10:                                               ; preds = %8
  %11 = load ptr, ptr getelementptr inbounds nuw (%struct._zend_output_globals, ptr @output_globals, i32 0, i32 2), align 8, !tbaa !30
  %12 = getelementptr inbounds nuw %struct._php_output_handler, ptr %11, i32 0, i32 5
  %13 = load ptr, ptr %5, align 8, !tbaa !4
  store ptr %12, ptr %13, align 8, !tbaa !4
  store i32 0, ptr %3, align 4
  br label %37

14:                                               ; preds = %8
  %15 = load ptr, ptr getelementptr inbounds nuw (%struct._zend_output_globals, ptr @output_globals, i32 0, i32 2), align 8, !tbaa !30
  %16 = getelementptr inbounds nuw %struct._php_output_handler, ptr %15, i32 0, i32 1
  %17 = load i32, ptr %16, align 8, !tbaa !65
  %18 = load ptr, ptr %5, align 8, !tbaa !4
  store i32 %17, ptr %18, align 4, !tbaa !57
  store i32 0, ptr %3, align 4
  br label %37

19:                                               ; preds = %8
  %20 = load ptr, ptr getelementptr inbounds nuw (%struct._zend_output_globals, ptr @output_globals, i32 0, i32 2), align 8, !tbaa !30
  %21 = getelementptr inbounds nuw %struct._php_output_handler, ptr %20, i32 0, i32 2
  %22 = load i32, ptr %21, align 4, !tbaa !83
  %23 = load ptr, ptr %5, align 8, !tbaa !4
  store i32 %22, ptr %23, align 4, !tbaa !57
  store i32 0, ptr %3, align 4
  br label %37

24:                                               ; preds = %8
  %25 = load ptr, ptr getelementptr inbounds nuw (%struct._zend_output_globals, ptr @output_globals, i32 0, i32 2), align 8, !tbaa !30
  %26 = getelementptr inbounds nuw %struct._php_output_handler, ptr %25, i32 0, i32 1
  %27 = load i32, ptr %26, align 8, !tbaa !65
  %28 = and i32 %27, -81
  store i32 %28, ptr %26, align 8, !tbaa !65
  store i32 0, ptr %3, align 4
  br label %37

29:                                               ; preds = %8
  %30 = load ptr, ptr getelementptr inbounds nuw (%struct._zend_output_globals, ptr @output_globals, i32 0, i32 2), align 8, !tbaa !30
  %31 = getelementptr inbounds nuw %struct._php_output_handler, ptr %30, i32 0, i32 1
  %32 = load i32, ptr %31, align 8, !tbaa !65
  %33 = or i32 %32, 8192
  store i32 %33, ptr %31, align 8, !tbaa !65
  store i32 0, ptr %3, align 4
  br label %37

34:                                               ; preds = %8
  br label %35

35:                                               ; preds = %34
  br label %36

36:                                               ; preds = %35, %2
  store i32 -1, ptr %3, align 4
  br label %37

37:                                               ; preds = %36, %29, %24, %19, %14, %10
  %38 = load i32, ptr %3, align 4
  ret i32 %38
}