; Function Attrs: mustprogress nofree norecurse nosync nounwind willreturn memory(readwrite, inaccessiblemem: none) uwtable
define dso_local range(i32 -1, 1) i32 @php_output_handler_hook(i32 noundef %0, ptr noundef writeonly captures(none) %1) local_unnamed_addr #15 {
  %3 = load ptr, ptr getelementptr inbounds nuw (i8, ptr @output_globals, i64 32), align 8, !tbaa !47
  %.not = icmp eq ptr %3, null
  br i1 %.not, label %21, label %4

4:                                                ; preds = %2
  switch i32 %0, label %21 [
    i32 0, label %5
    i32 1, label %7
    i32 2, label %10
    i32 3, label %13
    i32 4, label %17
  ]

5:                                                ; preds = %4
  %6 = getelementptr inbounds nuw i8, ptr %3, i64 56
  store ptr %6, ptr %1, align 8, !tbaa !4
  br label %21

7:                                                ; preds = %4
  %8 = getelementptr inbounds nuw i8, ptr %3, i64 8
  %9 = load i32, ptr %8, align 8, !tbaa !54
  store i32 %9, ptr %1, align 4, !tbaa !110
  br label %21

10:                                               ; preds = %4
  %11 = getelementptr inbounds nuw i8, ptr %3, i64 12
  %12 = load i32, ptr %11, align 4, !tbaa !79
  store i32 %12, ptr %1, align 4, !tbaa !110
  br label %21

13:                                               ; preds = %4
  %14 = getelementptr inbounds nuw i8, ptr %3, i64 8
  %15 = load i32, ptr %14, align 8, !tbaa !54
  %16 = and i32 %15, -81
  store i32 %16, ptr %14, align 8, !tbaa !54
  br label %21

17:                                               ; preds = %4
  %18 = getelementptr inbounds nuw i8, ptr %3, i64 8
  %19 = load i32, ptr %18, align 8, !tbaa !54
  %20 = or i32 %19, 8192
  store i32 %20, ptr %18, align 8, !tbaa !54
  br label %21

21:                                               ; preds = %2, %4, %17, %13, %10, %7, %5
  %.0 = phi i32 [ 0, %17 ], [ 0, %13 ], [ 0, %10 ], [ 0, %7 ], [ 0, %5 ], [ -1, %4 ], [ -1, %2 ]
  ret i32 %.0
}